; Function Attrs: nounwind uwtable
define void @Maj3_ManFree(ptr noundef captures(none) %0) local_unnamed_addr #2 {
  %2 = getelementptr inbounds nuw i8, ptr %0, i64 4536
  %3 = load ptr, ptr %2, align 8
  tail call void @bmcg_sat_solver_stop(ptr noundef %3) #22
  %4 = getelementptr inbounds nuw i8, ptr %0, i64 24
  %5 = load ptr, ptr %4, align 8
  %6 = getelementptr inbounds nuw i8, ptr %5, i64 8
  %7 = load ptr, ptr %6, align 8
  %.not.i = icmp eq ptr %7, null
  br i1 %.not.i, label %9, label %8

8:                                                ; preds = %1
  tail call void @free(ptr noundef nonnull %7) #22
  br label %9

9:                                                ; preds = %1, %8
  tail call void @free(ptr noundef nonnull %5) #22
  tail call void @free(ptr noundef nonnull %0) #22
  ret void
}